; ModuleID = '50/538.c'
source_filename = "50/538.c"
target datalayout = "e-m:e-p270:32:32-p271:32:32-p272:64:64-i64:64-f80:128-n8:16:32:64-S128"
target triple = "x86_64-pc-linux-gnu"

@.str = private unnamed_addr constant [3 x i8] c"%d\00", align 1
@.str.1 = private unnamed_addr constant [4 x i8] c"%d\0A\00", align 1

; Function Attrs: noinline nounwind uwtable
define dso_local i32 @main(i32 %0, i8** %1) #0 {
  %3 = alloca i32, align 4
  %4 = alloca i32, align 4
  %5 = alloca i8**, align 8
  %6 = alloca i32, align 4
  %7 = alloca i32, align 4
  %8 = alloca i32, align 4
  %9 = alloca [13 x i32], align 16
  %10 = alloca [13 x i32], align 16
  store i32 0, i32* %3, align 4
  store i32 %0, i32* %4, align 4
  store i8** %1, i8*** %5, align 8
  %11 = bitcast [13 x i32]* %9 to i8*
  call void @llvm.memset.p0i8.i64(i8* align 16 %11, i8 0, i64 52, i1 false)
  %12 = call i32 (i8*, ...) @__isoc99_scanf(i8* getelementptr inbounds ([3 x i8], [3 x i8]* @.str, i64 0, i64 0), i32* %6)
  store i32 1, i32* %7, align 4
  br label %13

13:                                               ; preds = %69, %2
  %14 = load i32, i32* %7, align 4
  %15 = icmp sle i32 %14, 12
  br i1 %15, label %16, label %72

16:                                               ; preds = %13
  %17 = load i32, i32* %7, align 4
  %18 = icmp eq i32 %17, 1
  br i1 %18, label %19, label %23

19:                                               ; preds = %16
  %20 = load i32, i32* %7, align 4
  %21 = sext i32 %20 to i64
  %22 = getelementptr inbounds [13 x i32], [13 x i32]* %10, i64 0, i64 %21
  store i32 0, i32* %22, align 4
  br label %23

23:                                               ; preds = %19, %16
  %24 = load i32, i32* %7, align 4
  %25 = icmp eq i32 %24, 2
  br i1 %25, label %41, label %26

26:                                               ; preds = %23
  %27 = load i32, i32* %7, align 4
  %28 = icmp eq i32 %27, 4
  br i1 %28, label %41, label %29

29:                                               ; preds = %26
  %30 = load i32, i32* %7, align 4
  %31 = icmp eq i32 %30, 6
  br i1 %31, label %41, label %32

32:                                               ; preds = %29
  %33 = load i32, i32* %7, align 4
  %34 = icmp eq i32 %33, 8
  br i1 %34, label %41, label %35

35:                                               ; preds = %32
  %36 = load i32, i32* %7, align 4
  %37 = icmp eq i32 %36, 9
  br i1 %37, label %41, label %38

38:                                               ; preds = %35
  %39 = load i32, i32* %7, align 4
  %40 = icmp eq i32 %39, 11
  br i1 %40, label %41, label %45

41:                                               ; preds = %38, %35, %32, %29, %26, %23
  %42 = load i32, i32* %7, align 4
  %43 = sext i32 %42 to i64
  %44 = getelementptr inbounds [13 x i32], [13 x i32]* %10, i64 0, i64 %43
  store i32 31, i32* %44, align 4
  br label %45

45:                                               ; preds = %41, %38
  %46 = load i32, i32* %7, align 4
  %47 = icmp eq i32 %46, 3
  br i1 %47, label %48, label %52

48:                                               ; preds = %45
  %49 = load i32, i32* %7, align 4
  %50 = sext i32 %49 to i64
  %51 = getelementptr inbounds [13 x i32], [13 x i32]* %10, i64 0, i64 %50
  store i32 28, i32* %51, align 4
  br label %52

52:                                               ; preds = %48, %45
  %53 = load i32, i32* %7, align 4
  %54 = icmp eq i32 %53, 5
  br i1 %54, label %64, label %55

55:                                               ; preds = %52
  %56 = load i32, i32* %7, align 4
  %57 = icmp eq i32 %56, 7
  br i1 %57, label %64, label %58

58:                                               ; preds = %55
  %59 = load i32, i32* %7, align 4
  %60 = icmp eq i32 %59, 10
  br i1 %60, label %64, label %61

61:                                               ; preds = %58
  %62 = load i32, i32* %7, align 4
  %63 = icmp eq i32 %62, 12
  br i1 %63, label %64, label %68

64:                                               ; preds = %61, %58, %55, %52
  %65 = load i32, i32* %7, align 4
  %66 = sext i32 %65 to i64
  %67 = getelementptr inbounds [13 x i32], [13 x i32]* %10, i64 0, i64 %66
  store i32 30, i32* %67, align 4
  br label %68

68:                                               ; preds = %64, %61
  br label %69

69:                                               ; preds = %68
  %70 = load i32, i32* %7, align 4
  %71 = add nsw i32 %70, 1
  store i32 %71, i32* %7, align 4
  br label %13

72:                                               ; preds = %13
  store i32 1, i32* %8, align 4
  br label %73

73:                                               ; preds = %98, %72
  %74 = load i32, i32* %8, align 4
  %75 = icmp sle i32 %74, 12
  br i1 %75, label %76, label %101

76:                                               ; preds = %73
  store i32 1, i32* %7, align 4
  br label %77

77:                                               ; preds = %94, %76
  %78 = load i32, i32* %7, align 4
  %79 = load i32, i32* %8, align 4
  %80 = icmp sle i32 %78, %79
  br i1 %80, label %81, label %97

81:                                               ; preds = %77
  %82 = load i32, i32* %8, align 4
  %83 = sext i32 %82 to i64
  %84 = getelementptr inbounds [13 x i32], [13 x i32]* %9, i64 0, i64 %83
  %85 = load i32, i32* %84, align 4
  %86 = load i32, i32* %7, align 4
  %87 = sext i32 %86 to i64
  %88 = getelementptr inbounds [13 x i32], [13 x i32]* %10, i64 0, i64 %87
  %89 = load i32, i32* %88, align 4
  %90 = add nsw i32 %85, %89
  %91 = load i32, i32* %8, align 4
  %92 = sext i32 %91 to i64
  %93 = getelementptr inbounds [13 x i32], [13 x i32]* %9, i64 0, i64 %92
  store i32 %90, i32* %93, align 4
  br label %94

94:                                               ; preds = %81
  %95 = load i32, i32* %7, align 4
  %96 = add nsw i32 %95, 1
  store i32 %96, i32* %7, align 4
  br label %77

97:                                               ; preds = %77
  br label %98

98:                                               ; preds = %97
  %99 = load i32, i32* %8, align 4
  %100 = add nsw i32 %99, 1
  store i32 %100, i32* %8, align 4
  br label %73

101:                                              ; preds = %73
  store i32 1, i32* %8, align 4
  br label %102

102:                                              ; preds = %120, %101
  %103 = load i32, i32* %8, align 4
  %104 = icmp sle i32 %103, 12
  br i1 %104, label %105, label %123

105:                                              ; preds = %102
  %106 = load i32, i32* %8, align 4
  %107 = sext i32 %106 to i64
  %108 = getelementptr inbounds [13 x i32], [13 x i32]* %9, i64 0, i64 %107
  %109 = load i32, i32* %108, align 4
  %110 = add nsw i32 %109, 13
  %111 = sub nsw i32 %110, 1
  %112 = load i32, i32* %6, align 4
  %113 = add nsw i32 %111, %112
  %114 = srem i32 %113, 7
  %115 = icmp eq i32 %114, 5
  br i1 %115, label %116, label %119

116:                                              ; preds = %105
  %117 = load i32, i32* %8, align 4
  %118 = call i32 (i8*, ...) @printf(i8* getelementptr inbounds ([4 x i8], [4 x i8]* @.str.1, i64 0, i64 0), i32 %117)
  br label %119

119:                                              ; preds = %116, %105
  br label %120

120:                                              ; preds = %119
  %121 = load i32, i32* %8, align 4
  %122 = add nsw i32 %121, 1
  store i32 %122, i32* %8, align 4
  br label %102

123:                                              ; preds = %102
  ret i32 0
}

; Function Attrs: argmemonly nounwind willreturn
declare void @llvm.memset.p0i8.i64(i8* nocapture writeonly, i8, i64, i1 immarg) #1

declare dso_local i32 @__isoc99_scanf(i8*, ...) #2

declare dso_local i32 @printf(i8*, ...) #2


!llvm.module.flags = !{!0}
!llvm.ident = !{!1}

!0 = !{i32 1, !"wchar_size", i32 4}
!1 = !{!"clang version 10.0.0-4ubuntu1 "}
